; Function Attrs: nounwind uwtable
define void @_ZThn8_N5arrow2io20SlowRandomAccessFileD1Ev(ptr noundef initializes((-8, 8), (48, 56)) %0) unnamed_addr #9 align 2 personality ptr @__gxx_personality_v0 {
  %2 = getelementptr inbounds i8, ptr %0, i64 -8
  %3 = getelementptr inbounds nuw i8, ptr %0, i64 48
  store ptr getelementptr inbounds nuw inrange(-64, 56) (i8, ptr @_ZTVN5arrow2io20SlowRandomAccessFileE, i64 328), ptr %3, align 8, !tbaa !3
  store ptr getelementptr inbounds nuw inrange(-64, 160) (i8, ptr @_ZTVN5arrow2io20SlowRandomAccessFileE, i64 64), ptr %2, align 8, !tbaa !3
  store ptr getelementptr inbounds nuw inrange(-16, 24) (i8, ptr @_ZTVN5arrow2io20SlowRandomAccessFileE, i64 240), ptr %0, align 8, !tbaa !3
  invoke void @_ZN5arrow2io8internal19CloseFromDestructorEPNS0_13FileInterfaceE(ptr noundef nonnull %3)
          to label %_ZN5arrow2io20SlowRandomAccessFileD1Ev.exit unwind label %4

4:                                                ; preds = %1
  %5 = landingpad { ptr, i32 }
          catch ptr null
  %6 = extractvalue { ptr, i32 } %5, 0
  tail call void @__clang_call_terminate(ptr %6) #24
  unreachable

_ZN5arrow2io20SlowRandomAccessFileD1Ev.exit:      ; preds = %1
  tail call void @_ZN5arrow2io19SlowInputStreamBaseINS0_16RandomAccessFileEED2Ev(ptr noundef nonnull align 8 dereferenceable(56) %2, ptr noundef nonnull getelementptr inbounds nuw (i8, ptr @_ZTTN5arrow2io20SlowRandomAccessFileE, i64 8)) #25
  tail call void @_ZN5arrow2io13FileInterfaceD2Ev(ptr noundef nonnull align 8 dereferenceable(28) %3) #25
  ret void
}